target datalayout = "e-m:e-p270:32:32-p271:32:32-p272:64:64-i64:64-i128:128-f80:128-n8:16:32:64-S128"
target triple = "x86_64-unknown-linux-gnu"

%"class.rocksdb::Slice" = type { ptr, i64 }
%"struct.rocksdb::PartitionerRequest" = type { ptr, ptr, i64 }
%"class.rocksdb::SstPartitionerFixedPrefix" = type { %"class.rocksdb::SstPartitioner", i64 }
%"class.rocksdb::SstPartitioner" = type { ptr }

; Function Attrs: mustprogress nounwind uwtable
define linkonce_odr noundef i32 @_ZNK7rocksdb5Slice7compareERKS0_(ptr noundef nonnull align 8 dereferenceable(16) %this, ptr noundef nonnull align 8 dereferenceable(16) %b) #3 comdat align 2 {
entry:
  %this.addr = alloca ptr, align 8
  %b.addr = alloca ptr, align 8
  %min_len = alloca i64, align 8
  %r = alloca i32, align 4
  store ptr %this, ptr %this.addr, align 8
  store ptr %b, ptr %b.addr, align 8
  %this1 = load ptr, ptr %this.addr, align 8
  %size_ = getelementptr inbounds %"class.rocksdb::Slice", ptr %this1, i32 0, i32 1
  %0 = load i64, ptr %size_, align 8
  %1 = load ptr, ptr %b.addr, align 8
  %size_2 = getelementptr inbounds %"class.rocksdb::Slice", ptr %1, i32 0, i32 1
  %2 = load i64, ptr %size_2, align 8
  %cmp = icmp ult i64 %0, %2
  br i1 %cmp, label %cond.true, label %cond.false

cond.true:                                        ; preds = %entry
  %size_3 = getelementptr inbounds %"class.rocksdb::Slice", ptr %this1, i32 0, i32 1
  %3 = load i64, ptr %size_3, align 8
  br label %cond.end

cond.false:                                       ; preds = %entry
  %4 = load ptr, ptr %b.addr, align 8
  %size_4 = getelementptr inbounds %"class.rocksdb::Slice", ptr %4, i32 0, i32 1
  %5 = load i64, ptr %size_4, align 8
  br label %cond.end

cond.end:                                         ; preds = %cond.false, %cond.true
  %cond = phi i64 [ %3, %cond.true ], [ %5, %cond.false ]
  store i64 %cond, ptr %min_len, align 8
  %data_ = getelementptr inbounds %"class.rocksdb::Slice", ptr %this1, i32 0, i32 0
  %6 = load ptr, ptr %data_, align 8
  %7 = load ptr, ptr %b.addr, align 8
  %data_5 = getelementptr inbounds %"class.rocksdb::Slice", ptr %7, i32 0, i32 0
  %8 = load ptr, ptr %data_5, align 8
  %9 = load i64, ptr %min_len, align 8
  %call = call i32 @memcmp(ptr noundef %6, ptr noundef %8, i64 noundef %9) #16
  store i32 %call, ptr %r, align 4
  %10 = load i32, ptr %r, align 4
  %cmp6 = icmp eq i32 %10, 0
  br i1 %cmp6, label %if.then, label %if.end16

if.then:                                          ; preds = %cond.end
  %size_7 = getelementptr inbounds %"class.rocksdb::Slice", ptr %this1, i32 0, i32 1
  %11 = load i64, ptr %size_7, align 8
  %12 = load ptr, ptr %b.addr, align 8
  %size_8 = getelementptr inbounds %"class.rocksdb::Slice", ptr %12, i32 0, i32 1
  %13 = load i64, ptr %size_8, align 8
  %cmp9 = icmp ult i64 %11, %13
  br i1 %cmp9, label %if.then10, label %if.else

if.then10:                                        ; preds = %if.then
  store i32 -1, ptr %r, align 4
  br label %if.end15

if.else:                                          ; preds = %if.then
  %size_11 = getelementptr inbounds %"class.rocksdb::Slice", ptr %this1, i32 0, i32 1
  %14 = load i64, ptr %size_11, align 8
  %15 = load ptr, ptr %b.addr, align 8
  %size_12 = getelementptr inbounds %"class.rocksdb::Slice", ptr %15, i32 0, i32 1
  %16 = load i64, ptr %size_12, align 8
  %cmp13 = icmp ugt i64 %14, %16
  br i1 %cmp13, label %if.then14, label %if.end

if.then14:                                        ; preds = %if.else
  store i32 1, ptr %r, align 4
  br label %if.end

if.end:                                           ; preds = %if.then14, %if.else
  br label %if.end15

if.end15:                                         ; preds = %if.end, %if.then10
  br label %if.end16

if.end16:                                         ; preds = %if.end15, %cond.end
  %17 = load i32, ptr %r, align 4
  ret i32 %17
}

; Function Attrs: mustprogress nounwind uwtable
define linkonce_odr noundef i64 @_ZNK7rocksdb5Slice4sizeEv(ptr noundef nonnull align 8 dereferenceable(16) %this) #3 comdat align 2 {
entry:
  %this.addr = alloca ptr, align 8
  store ptr %this, ptr %this.addr, align 8
  %this1 = load ptr, ptr %this.addr, align 8
  %size_ = getelementptr inbounds %"class.rocksdb::Slice", ptr %this1, i32 0, i32 1
  %0 = load i64, ptr %size_, align 8
  ret i64 %0
}

; Function Attrs: mustprogress uwtable
define noundef signext i8 @_ZN7rocksdb25SstPartitionerFixedPrefix15ShouldPartitionERKNS_18PartitionerRequestE(ptr noundef nonnull align 8 dereferenceable(16) %this, ptr noundef nonnull align 8 dereferenceable(24) %request) unnamed_addr #2 align 2 {
entry:
  %this.addr = alloca ptr, align 8
  %request.addr = alloca ptr, align 8
  %last_key_fixed = alloca %"class.rocksdb::Slice", align 8
  %current_key_fixed = alloca %"class.rocksdb::Slice", align 8
  store ptr %this, ptr %this.addr, align 8
  store ptr %request, ptr %request.addr, align 8
  %this1 = load ptr, ptr %this.addr, align 8
  %0 = load ptr, ptr %request.addr, align 8
  %prev_user_key = getelementptr inbounds %"struct.rocksdb::PartitionerRequest", ptr %0, i32 0, i32 0
  %1 = load ptr, ptr %prev_user_key, align 8
  call void @llvm.memcpy.p0.p0.i64(ptr align 8 %last_key_fixed, ptr align 8 %1, i64 16, i1 false)
  %call = call noundef i64 @_ZNK7rocksdb5Slice4sizeEv(ptr noundef nonnull align 8 dereferenceable(16) %last_key_fixed)
  %len_ = getelementptr inbounds %"class.rocksdb::SstPartitionerFixedPrefix", ptr %this1, i32 0, i32 1
  %2 = load i64, ptr %len_, align 8
  %cmp = icmp ugt i64 %call, %2
  br i1 %cmp, label %if.then, label %if.end

if.then:                                          ; preds = %entry
  %len_2 = getelementptr inbounds %"class.rocksdb::SstPartitionerFixedPrefix", ptr %this1, i32 0, i32 1
  %3 = load i64, ptr %len_2, align 8
  %size_ = getelementptr inbounds %"class.rocksdb::Slice", ptr %last_key_fixed, i32 0, i32 1
  store i64 %3, ptr %size_, align 8
  br label %if.end

if.end:                                           ; preds = %if.then, %entry
  %4 = load ptr, ptr %request.addr, align 8
  %current_user_key = getelementptr inbounds %"struct.rocksdb::PartitionerRequest", ptr %4, i32 0, i32 1
  %5 = load ptr, ptr %current_user_key, align 8
  call void @llvm.memcpy.p0.p0.i64(ptr align 8 %current_key_fixed, ptr align 8 %5, i64 16, i1 false)
  %call3 = call noundef i64 @_ZNK7rocksdb5Slice4sizeEv(ptr noundef nonnull align 8 dereferenceable(16) %current_key_fixed)
  %len_4 = getelementptr inbounds %"class.rocksdb::SstPartitionerFixedPrefix", ptr %this1, i32 0, i32 1
  %6 = load i64, ptr %len_4, align 8
  %cmp5 = icmp ugt i64 %call3, %6
  br i1 %cmp5, label %if.then6, label %if.end9

if.then6:                                         ; preds = %if.end
  %len_7 = getelementptr inbounds %"class.rocksdb::SstPartitionerFixedPrefix", ptr %this1, i32 0, i32 1
  %7 = load i64, ptr %len_7, align 8
  %size_8 = getelementptr inbounds %"class.rocksdb::Slice", ptr %current_key_fixed, i32 0, i32 1
  store i64 %7, ptr %size_8, align 8
  br label %if.end9

if.end9:                                          ; preds = %if.then6, %if.end
  %call10 = call noundef i32 @_ZNK7rocksdb5Slice7compareERKS0_(ptr noundef nonnull align 8 dereferenceable(16) %last_key_fixed, ptr noundef nonnull align 8 dereferenceable(16) %current_key_fixed)
  %cmp11 = icmp ne i32 %call10, 0
  %cond = select i1 %cmp11, i8 1, i8 0
  ret i8 %cond
}