; Function Attrs: mustprogress nofree nounwind willreturn memory(read, inaccessiblemem: none) uwtable
define noundef signext i8 @_ZN7rocksdb25SstPartitionerFixedPrefix15ShouldPartitionERKNS_18PartitionerRequestE(ptr nocapture noundef nonnull readonly align 8 dereferenceable(16) %this, ptr nocapture noundef nonnull readonly align 8 dereferenceable(24) %request) unnamed_addr #5 align 2 {
entry:
  %0 = load ptr, ptr %request, align 8
  %last_key_fixed.sroa.0.0.copyload = load ptr, ptr %0, align 8
  %last_key_fixed.sroa.2.0..sroa_idx = getelementptr inbounds i8, ptr %0, i64 8
  %last_key_fixed.sroa.2.0.copyload = load i64, ptr %last_key_fixed.sroa.2.0..sroa_idx, align 8
  %len_ = getelementptr inbounds i8, ptr %this, i64 8
  %1 = load i64, ptr %len_, align 8
  %spec.select = tail call i64 @llvm.umin.i64(i64 %last_key_fixed.sroa.2.0.copyload, i64 %1)
  %current_user_key = getelementptr inbounds i8, ptr %request, i64 8
  %2 = load ptr, ptr %current_user_key, align 8
  %current_key_fixed.sroa.0.0.copyload = load ptr, ptr %2, align 8
  %current_key_fixed.sroa.2.0..sroa_idx = getelementptr inbounds i8, ptr %2, i64 8
  %current_key_fixed.sroa.2.0.copyload = load i64, ptr %current_key_fixed.sroa.2.0..sroa_idx, align 8
  %current_key_fixed.sroa.2.0 = tail call i64 @llvm.umin.i64(i64 %current_key_fixed.sroa.2.0.copyload, i64 %1)
  %cmp.i = icmp ult i64 %last_key_fixed.sroa.2.0.copyload, %current_key_fixed.sroa.2.0
  %..i = tail call i64 @llvm.umin.i64(i64 %spec.select, i64 %current_key_fixed.sroa.2.0)
  %bcmp = tail call i32 @bcmp(ptr %last_key_fixed.sroa.0.0.copyload, ptr %current_key_fixed.sroa.0.0.copyload, i64 %..i)
  %cmp6.not.i = icmp ne i32 %bcmp, 0
  %cmp13.i = icmp ult i64 %current_key_fixed.sroa.2.0.copyload, %spec.select
  %cmp11.not7 = or i1 %cmp13.i, %cmp.i
  %cmp11.not = select i1 %cmp6.not.i, i1 true, i1 %cmp11.not7
  %cond = zext i1 %cmp11.not to i8
  ret i8 %cond
}